Certificate:
    Data:
        Version: 3 (0x2)
        Serial Number: 1 (0x1)
        Signature Algorithm: sha256WithRSAEncryption
        Issuer: C=CU, ST=HB, L=Habana, O=House, OU=House, CN=cuvpn001/name=server/emailAddress=linux8a@gmail.com
        Validity
            Not Before: Apr 30 02:42:52 2020 GMT
            Not After : Apr 28 02:42:52 2030 GMT
        Subject: C=CU, ST=HB, L=Habana, O=House, OU=House, CN=cuvpn001/name=server/emailAddress=linux8a@gmail.com
        Subject Public Key Info:
            Public Key Algorithm: rsaEncryption
                RSA Public-Key: (2048 bit)
                Modulus:
                    00:e7:7f:87:da:70:c2:d1:ce:63:5d:66:cb:f9:83:
                    c9:8f:c6:ad:2b:2f:d3:ac:9e:59:c0:bd:69:56:56:
                    22:a4:65:04:be:79:db:95:b1:de:d7:f7:30:a8:4a:
                    fb:8c:b1:73:c2:f5:fc:b0:24:be:0a:76:04:c5:36:
                    6d:e9:a3:c6:30:6c:61:93:41:d2:d5:18:fb:31:e5:
                    f9:20:2a:26:41:3d:7b:bd:d0:0f:5d:f4:7b:03:25:
                    80:72:0a:2c:a4:72:5b:38:f9:6a:53:17:38:fa:3a:
                    4c:06:c9:1a:d7:50:dc:6e:f9:6b:35:ae:fc:09:d1:
                    dc:a9:a0:ab:07:bb:cc:59:7f:99:23:c3:d7:40:7d:
                    b8:c8:c5:55:48:9e:72:01:41:2c:09:ff:23:27:23:
                    21:1d:49:05:9c:56:3a:8c:50:70:0b:66:1f:ca:f6:
                    7b:7f:d5:9e:53:c1:c6:cd:0c:69:1c:83:66:2e:5a:
                    ba:fe:87:47:75:99:2b:b6:31:e5:8d:11:e3:31:13:
                    77:9f:1e:82:71:58:fb:c2:68:2c:6c:b0:d5:f4:7a:
                    d3:6b:8a:b2:98:fc:22:75:73:bf:f2:95:1e:3f:17:
                    d7:41:dc:41:f7:03:ac:96:3a:81:93:37:88:fb:7b:
                    d3:ac:d9:9b:4c:f6:11:f1:8a:2a:f8:28:19:d7:e6:
                    bb:49
                Exponent: 65537 (0x10001)
        X509v3 extensions:
            X509v3 Basic Constraints: 
                CA:FALSE
            Netscape Cert Type: 
                SSL Server
            Netscape Comment: 
                Easy-RSA Generated Server Certificate
            X509v3 Subject Key Identifier: 
                E4:68:B1:1E:E4:97:F9:DF:24:9B:96:1C:B6:8F:02:79:38:BD:9A:10
            X509v3 Authority Key Identifier: 
                keyid:62:62:A1:6E:CD:4B:10:83:82:70:08:80:50:46:57:67:F1:C1:9B:EB
                DirName:/C=CU/ST=HB/L=Habana/O=House/OU=House/CN=cuvpn001/name=server/emailAddress=linux8a@gmail.com
                serial:45:0D:37:98:AB:2C:DC:A4:0F:73:93:68:19:D6:50:C2:5F:2C:6E:B4

            X509v3 Extended Key Usage: 
                TLS Web Server Authentication
            X509v3 Key Usage: 
                Digital Signature, Key Encipherment
            X509v3 Subject Alternative Name: 
                DNS:server
    Signature Algorithm: sha256WithRSAEncryption
         41:ce:63:78:98:32:ef:05:a1:54:81:c8:1a:e2:ce:bd:d3:af:
         ff:32:4e:ef:65:6e:20:87:9f:e0:25:46:08:08:7e:70:f3:b4:
         1a:75:ef:05:e6:6d:cd:2c:82:2c:2a:e3:5f:89:12:c1:22:3c:
         c8:ad:78:e0:bb:f3:5e:d5:fd:e1:74:6f:0c:b4:d0:5f:a8:e6:
         0a:ff:9e:ca:87:52:23:d1:47:d5:a1:b7:b8:ac:d5:91:72:fe:
         5f:21:4b:35:42:4b:48:5b:04:af:dd:35:f0:e9:52:02:25:a0:
         66:10:fa:37:4b:11:7e:d2:13:14:ab:64:fa:db:1f:f7:c8:03:
         27:9e:17:f9:ec:91:d8:6a:2a:52:8e:8a:d0:0c:23:df:7d:f6:
         ee:f3:57:11:59:da:1f:ef:7e:e2:b8:84:da:17:d3:08:b4:f4:
         43:0e:9d:dc:79:1e:bc:61:d2:5a:c8:89:7b:bc:07:26:cd:be:
         46:73:7c:5f:dc:d1:07:a8:2d:17:d8:a4:bd:8b:55:b6:4d:a8:
         c9:60:9a:7b:64:e2:52:3e:7a:2b:1f:7a:32:8d:69:7c:6e:d9:
         f5:21:c4:cc:48:d9:2a:38:45:62:16:1a:76:d6:22:31:c0:e7:
         db:09:2d:55:10:c9:3c:1e:ce:95:89:ee:92:97:e4:67:b3:a9:
         30:58:e4:91
-----BEGIN CERTIFICATE-----
MIIFITCCBAmgAwIBAgIBATANBgkqhkiG9w0BAQsFADCBkTELMAkGA1UEBhMCQ1Ux
CzAJBgNVBAgTAkhCMQ8wDQYDVQQHEwZIYWJhbmExDjAMBgNVBAoTBUhvdXNlMQ4w
DAYDVQQLEwVIb3VzZTERMA8GA1UEAxMIY3V2cG4wMDExDzANBgNVBCkTBnNlcnZl
cjEgMB4GCSqGSIb3DQEJARYRbGludXg4YUBnbWFpbC5jb20wHhcNMjAwNDMwMDI0
MjUyWhcNMzAwNDI4MDI0MjUyWjCBkTELMAkGA1UEBhMCQ1UxCzAJBgNVBAgTAkhC
MQ8wDQYDVQQHEwZIYWJhbmExDjAMBgNVBAoTBUhvdXNlMQ4wDAYDVQQLEwVIb3Vz
ZTERMA8GA1UEAxMIY3V2cG4wMDExDzANBgNVBCkTBnNlcnZlcjEgMB4GCSqGSIb3
DQEJARYRbGludXg4YUBnbWFpbC5jb20wggEiMA0GCSqGSIb3DQEBAQUAA4IBDwAw
ggEKAoIBAQDnf4facMLRzmNdZsv5g8mPxq0rL9OsnlnAvWlWViKkZQS+eduVsd7X
9zCoSvuMsXPC9fywJL4KdgTFNm3po8YwbGGTQdLVGPsx5fkgKiZBPXu90A9d9HsD
JYByCiykcls4+WpTFzj6OkwGyRrXUNxu+Ws1rvwJ0dypoKsHu8xZf5kjw9dAfbjI
xVVInnIBQSwJ/yMnIyEdSQWcVjqMUHALZh/K9nt/1Z5TwcbNDGkcg2YuWrr+h0d1
mSu2MeWNEeMxE3efHoJxWPvCaCxssNX0etNrirKY/CJ1c7/ylR4/F9dB3EH3A6yW
OoGTN4j7e9Os2ZtM9hHxiir4KBnX5rtJAgMBAAGjggGAMIIBfDAJBgNVHRMEAjAA
MBEGCWCGSAGG+EIBAQQEAwIGQDA0BglghkgBhvhCAQ0EJxYlRWFzeS1SU0EgR2Vu
ZXJhdGVkIFNlcnZlciBDZXJ0aWZpY2F0ZTAdBgNVHQ4EFgQU5GixHuSX+d8km5Yc
to8CeTi9mhAwgdEGA1UdIwSByTCBxoAUYmKhbs1LEIOCcAiAUEZXZ/HBm+uhgZek
gZQwgZExCzAJBgNVBAYTAkNVMQswCQYDVQQIEwJIQjEPMA0GA1UEBxMGSGFiYW5h
MQ4wDAYDVQQKEwVIb3VzZTEOMAwGA1UECxMFSG91c2UxETAPBgNVBAMTCGN1dnBu
MDAxMQ8wDQYDVQQpEwZzZXJ2ZXIxIDAeBgkqhkiG9w0BCQEWEWxpbnV4OGFAZ21h
aWwuY29tghRFDTeYqyzcpA9zk2gZ1lDCXyxutDATBgNVHSUEDDAKBggrBgEFBQcD
ATALBgNVHQ8EBAMCBaAwEQYDVR0RBAowCIIGc2VydmVyMA0GCSqGSIb3DQEBCwUA
A4IBAQBBzmN4mDLvBaFUgcga4s6906//Mk7vZW4gh5/gJUYICH5w87Qade8F5m3N
LIIsKuNfiRLBIjzIrXjgu/Ne1f3hdG8MtNBfqOYK/57Kh1Ij0UfVobe4rNWRcv5f
IUs1QktIWwSv3TXw6VICJaBmEPo3SxF+0hMUq2T62x/3yAMnnhf57JHYaipSjorQ
DCPfffbu81cRWdof737iuITaF9MItPRDDp3ceR68YdJayIl7vAcmzb5Gc3xf3NEH
qC0X2KS9i1W2TajJYJp7ZOJSPnorH3oyjWl8btn1IcTMSNkqOEViFhp21iIxwOfb
CS1VEMk8Hs6Vie6Sl+Rns6kwWOSR
-----END CERTIFICATE-----
